(dp0
S'topics'
p1
(lp2
S'Addresses'
p3
aS'Pending'
p4
aS'Filters'
p5
aS'Lists'
p6
aS'Settings'
p7
aS'Info'
p8
aS'Logout'
p9
asS'subtopics'
p10
(lp11
S'E-mail'
p12
aS'Generate Dynamic/Return Address'
p13
aS'Test Dynamic Address'
p14
aS'Incoming Filter'
p15
aS'Outgoing Filter'
p16
aS'Test Filters'
p17
aS'Theme'
p18
aS'Local Config'
p19
aS'Templates'
p20
aS'Global Config'
p21
aS'Uninstall'
p22
aS'whitelist'
p23
aS'white'
p24
aS'blacklist'
p25
aS'black'
p26
aS'confirmed'
p27
aS'confirm'
p28
aS'revoked'
p29
aS'work'
p30
aS'family'
p31
aS'friends'
p32
aS'accept'
p33
aS'deny'
p34
aS'whitelist_confirmed'
p35
aS'other'
p36
as.