(dp0
S'topics'
p1
(lp2
S'Addresses'
p3
aS'Pending'
p4
aS'Filters'
p5
aS'Lists'
p6
aS'Settings'
p7
aS'Info'
p8
aS'Logout'
p9
asS'subtopics'
p10
(lp11
S'   E-mail'
p12
aS'Generate Dynamic/Return Address'
p13
aS'Test Dynamic Address'
p14
aS'Pending E-mails'
p15
aS'Auto-cleanup'
p16
aS'Incoming Filter'
p17
aS'Outgoing Filter'
p18
aS'Test Filters'
p19
aS'Local Config'
p20
aS'Global Config'
p21
aS'Theme'
p22
aS'Change Password'
p23
aS'Uninstall'
p24
aS'whitelist'
p25
aS'white'
p26
aS'blacklist'
p27
aS'black'
p28
aS'confirmed'
p29
aS'confirm'
p30
aS'revoked'
p31
aS'work'
p32
aS'family'
p33
aS'friends'
p34
aS'accept'
p35
aS'deny'
p36
aS'whitelist_confirmed'
p37
aS'other'
p38
as.