(dp0
S'topics'
p1
(lp2
S'Addresses'
p3
aS'Pending'
p4
aS'Filters'
p5
aS'Lists'
p6
aS'Settings'
p7
aS'Logout'
p8
asS'subtopics'
p9
(lp10
S'   E-mail'
p11
aS'Generate Dynamic/Return Address'
p12
aS'Test Dynamic Address'
p13
aS'Pending E-mails'
p14
aS'Auto-cleanup'
p15
aS'Incoming Filter'
p16
aS'Outgoing Filter'
p17
aS'Test Filters'
p18
aS'Local Config'
p19
aS'Global Config'
p20
aS'Theme'
p21
aS'Change Password'
p22
aS'whitelist'
p23
aS'blacklist'
p24
aS'confirmed'
p25
aS'revoked'
p26
aS'other'
p27
as.