(dp0
S'family'
p1
(dp2
S'width'
p3
I194
sS'hfn'
p4
S'dyn_buttons/h-subtopic19.png'
p5
sS'fn'
p6
S'dyn_buttons/subtopic19.png'
p7
sS'height'
p8
I14
ssS'whitelist'
p9
(dp10
g3
I194
sg4
S'dyn_buttons/h-subtopic11.png'
p11
sg6
S'dyn_buttons/subtopic11.png'
p12
sg8
I14
ssS'accept'
p13
(dp14
g3
I194
sg4
S'dyn_buttons/h-subtopic21.png'
p15
sg6
S'dyn_buttons/subtopic21.png'
p16
sg8
I14
ssS'E-mail'
p17
(dp18
g3
I194
sg4
S'dyn_buttons/h-subtopic1.png'
p19
sg6
S'dyn_buttons/subtopic1.png'
p20
sg8
I14
ssS'Theme'
p21
(dp22
g3
I194
sg4
S'dyn_buttons/h-subtopic6.png'
p23
sg6
S'dyn_buttons/subtopic6.png'
p24
sg8
I14
ssS'Templates'
p25
(dp26
g3
I194
sg4
S'dyn_buttons/h-subtopic8.png'
p27
sg6
S'dyn_buttons/subtopic8.png'
p28
sg8
I14
ssS'confirmed'
p29
(dp30
g3
I194
sg4
S'dyn_buttons/h-subtopic15.png'
p31
sg6
S'dyn_buttons/subtopic15.png'
p32
sg8
I14
ssS'Outgoing Filter'
p33
(dp34
g3
I194
sg4
S'dyn_buttons/h-subtopic5.png'
p35
sg6
S'dyn_buttons/subtopic5.png'
p36
sg8
I14
ssS'confirm'
p37
(dp38
g3
I194
sg4
S'dyn_buttons/h-subtopic16.png'
p39
sg6
S'dyn_buttons/subtopic16.png'
p40
sg8
I14
ssS'whitelist_confirmed'
p41
(dp42
g3
I194
sg4
S'dyn_buttons/h-subtopic23.png'
p43
sg6
S'dyn_buttons/subtopic23.png'
p44
sg8
I14
ssS'Global Config'
p45
(dp46
g3
I194
sg4
S'dyn_buttons/h-subtopic9.png'
p47
sg6
S'dyn_buttons/subtopic9.png'
p48
sg8
I14
ssS'other'
p49
(dp50
g3
I194
sg4
S'dyn_buttons/h-subtopic24.png'
p51
sg6
S'dyn_buttons/subtopic24.png'
p52
sg8
I14
ssS'black'
p53
(dp54
g3
I194
sg4
S'dyn_buttons/h-subtopic14.png'
p55
sg6
S'dyn_buttons/subtopic14.png'
p56
sg8
I14
ssS'white'
p57
(dp58
g3
I194
sg4
S'dyn_buttons/h-subtopic12.png'
p59
sg6
S'dyn_buttons/subtopic12.png'
p60
sg8
I14
ssS'Incoming Filter'
p61
(dp62
g3
I194
sg4
S'dyn_buttons/h-subtopic4.png'
p63
sg6
S'dyn_buttons/subtopic4.png'
p64
sg8
I14
ssS'Local Config'
p65
(dp66
g3
I194
sg4
S'dyn_buttons/h-subtopic7.png'
p67
sg6
S'dyn_buttons/subtopic7.png'
p68
sg8
I14
ssS'blacklist'
p69
(dp70
g3
I194
sg4
S'dyn_buttons/h-subtopic13.png'
p71
sg6
S'dyn_buttons/subtopic13.png'
p72
sg8
I14
ssS'friends'
p73
(dp74
g3
I194
sg4
S'dyn_buttons/h-subtopic20.png'
p75
sg6
S'dyn_buttons/subtopic20.png'
p76
sg8
I14
ssS'Uninstall'
p77
(dp78
g3
I194
sg4
S'dyn_buttons/h-subtopic10.png'
p79
sg6
S'dyn_buttons/subtopic10.png'
p80
sg8
I14
ssS'deny'
p81
(dp82
g3
I194
sg4
S'dyn_buttons/h-subtopic22.png'
p83
sg6
S'dyn_buttons/subtopic22.png'
p84
sg8
I14
ssS'revoked'
p85
(dp86
g3
I194
sg4
S'dyn_buttons/h-subtopic17.png'
p87
sg6
S'dyn_buttons/subtopic17.png'
p88
sg8
I14
ssS'work'
p89
(dp90
g3
I194
sg4
S'dyn_buttons/h-subtopic18.png'
p91
sg6
S'dyn_buttons/subtopic18.png'
p92
sg8
I14
ssS'Generate Dynamic/Return Address'
p93
(dp94
g3
I194
sg4
S'dyn_buttons/h-subtopic2.png'
p95
sg6
S'dyn_buttons/subtopic2.png'
p96
sg8
I14
ssS'Test Dynamic Address'
p97
(dp98
g3
I194
sg4
S'dyn_buttons/h-subtopic3.png'
p99
sg6
S'dyn_buttons/subtopic3.png'
p100
sg8
I14
ss.