(dp0
S'topics'
p1
(lp2
S'Overview'
p3
aS'Virtual Users'
p4
aS'Install'
p5
aS'Passwords'
p6
aS'Config.'
p7
aS'Support'
p8
asS'subtopics'
p9
(lp10
S'What is it?'
p11
aS'Screenshots'
p12
aS'Requirements'
p13
aS'Download'
p14
aS'Modes'
p15
aS'Compilation'
p16
aS'Centralized no-su'
p17
aS'Configuration'
p18
aS'   TMDA config'
p19
aS'   defaults.ini'
p20
aS'   theme.ini'
p21
aS'   User prefs.'
p22
aS'Auto-installation'
p23
aS'URL Confirmation'
p24
aS'Surprises & Gotchas'
p25
aS'Contact'
p26
aS'Commercial Support'
p27
as.