(dp0
S'topics'
p1
(lp2
S'Overview'
p3
aS'Tutorial'
p4
aS'Virtual Users'
p5
aS'Install'
p6
aS'Passwords'
p7
aS'Config.'
p8
aS'Support'
p9
asS'subtopics'
p10
(lp11
S'What is it?'
p12
aS'Why do I need it?'
p13
aS'Screenshots'
p14
aS'Requirements'
p15
aS'Welcome to TMDA'
p16
aS'Challenge Example'
p17
aS'Frequently Asked/Questions'
p18
aS'Getting Started'
p19
aS'Navigation of the/Pending e-mails'
p20
aS'Anticipating e-mail'
p21
aS'Download'
p22
aS'Modes'
p23
aS'Compilation'
p24
aS'Centralized no-su'
p25
aS'Configuration'
p26
aS'   TMDA config'
p27
aS'   defaults.ini'
p28
aS'   theme.ini'
p29
aS'   User prefs.'
p30
aS'Auto-installation'
p31
aS'URL Confirmation'
p32
aS'Customization'
p33
aS'Surprises & Gotchas'
p34
aS'Contact'
p35
aS'Commercial Support'
p36
as.