(dp0
S'topics'
p1
(lp2
S'Overview'
p3
aS'Virtual Users'
p4
aS'Install'
p5
aS'Passwords'
p6
aS'Config.'
p7
aS'Support'
p8
asS'subtopics'
p9
(lp10
S'What is it?'
p11
aS'Screenshots'
p12
aS'Requirements'
p13
aS'Credit'
p14
aS'Download'
p15
aS'Modes'
p16
aS'Compilation'
p17
aS'Centralized no-su'
p18
aS'Configuration'
p19
aS'   TMDA config'
p20
aS'   defaults.ini'
p21
aS'   theme.ini'
p22
aS'   User prefs.'
p23
aS'Auto-installation'
p24
aS'URL Confirmation'
p25
aS'Surprises & Gotchas'
p26
aS'Contact'
p27
as.